; Function Attrs: nounwind uwtable
define i64 @zend_ini_parse_quantity_warn(ptr noundef %0, ptr noundef %1) local_unnamed_addr #0 {
  %3 = alloca ptr, align 8
  %4 = call fastcc i64 @zend_ini_parse_quantity_internal(ptr noundef %0, i32 noundef 0, ptr noundef nonnull %3)
  %5 = load ptr, ptr %3, align 8
  %.not = icmp eq ptr %5, null
  br i1 %.not, label %21, label %6

6:                                                ; preds = %2
  %7 = getelementptr inbounds i8, ptr %1, i64 24
  %8 = getelementptr inbounds i8, ptr %5, i64 24
  tail call void (i32, ptr, ...) @zend_error(i32 noundef 2, ptr noundef nonnull @.str.4, ptr noundef nonnull %7, ptr noundef nonnull %8) #20
  %9 = getelementptr inbounds i8, ptr %5, i64 4
  %10 = load i32, ptr %9, align 4
  %11 = and i32 %10, 64
  %.not11 = icmp eq i32 %11, 0
  br i1 %.not11, label %12, label %21

12:                                               ; preds = %6
  %13 = load i32, ptr %5, align 4
  %14 = icmp ne i32 %13, 0
  tail call void @llvm.assume(i1 %14)
  %15 = add i32 %13, -1
  store i32 %15, ptr %5, align 4
  %16 = icmp eq i32 %15, 0
  br i1 %16, label %17, label %21

17:                                               ; preds = %12
  %18 = and i32 %10, 128
  %.not12 = icmp eq i32 %18, 0
  br i1 %.not12, label %20, label %19

19:                                               ; preds = %17
  tail call void @free(ptr noundef nonnull %5) #20
  br label %21

20:                                               ; preds = %17
  tail call void @_efree(ptr noundef nonnull %5) #20
  br label %21

21:                                               ; preds = %6, %19, %20, %12, %2
  ret i64 %4
}